target datalayout = "e-m:e-p270:32:32-p271:32:32-p272:64:64-i64:64-i128:128-f80:128-n8:16:32:64-S128"
target triple = "x86_64-pc-linux-gnu"

%struct._packet_info = type { ptr, ptr, i32, i32, %struct.nstime_t, %struct.nstime_t, %struct.nstime_t, i8, ptr, ptr, ptr, ptr, %struct._address, %struct._address, %struct._address, %struct._address, %struct._address, %struct._address, i32, ptr, i8, [3 x i8], %struct.anon, i32, i32, i32, i32, ptr, i8, ptr, ptr, i16, i16, i32, i32, i16, i32, i32, ptr, ptr, ptr, i8, i8, i16, i16, i16, i32, i16, i16, ptr, ptr, ptr, ptr, ptr, i32, i32 }
%struct.nstime_t = type { i64, i32 }
%struct._address = type { i32, i32, ptr, ptr }
%struct.anon = type { i8, [3 x i8] }

@proto_tpncp = internal global i32 0, align 4
@db_initialized = internal global i8 0, align 1
@ett_tpncp = internal global i32 0, align 4
@ett_tpncp_body = internal global i32 0, align 4
@.str.9 = private unnamed_addr constant [6 x i8] c"TPNCP\00", align 1
@tpncp_events_info_len = hidden global i32 0, align 4
@tpncp_commands_info_len = hidden global i32 0, align 4
@tpncp_events_id_vals = internal global ptr null, align 8
@tpncp_commands_id_vals = internal global ptr null, align 8
@tpncp_events_info_db = internal global ptr null, align 8
@tpncp_commands_info_db = internal global ptr null, align 8
@hf_tpncp_version = internal global i32 0, align 4
@hf_tpncp_length = internal global i32 0, align 4
@hf_tpncp_seq_number = internal global i32 0, align 4
@hf_tpncp_length_ext = internal global i32 0, align 4
@hf_tpncp_reserved = internal global i32 0, align 4
@hf_tpncp_command_id = internal global i32 0, align 4
@hf_tpncp_event_id = internal global i32 0, align 4
@hf_tpncp_cid = internal global i32 0, align 4
@.str.56 = private unnamed_addr constant [21 x i8] c"TPNCP Event: %s (%d)\00", align 1
@.str.57 = private unnamed_addr constant [8 x i8] c"Unknown\00", align 1
@.str.58 = private unnamed_addr constant [46 x i8] c"EvID=%s(%d), SeqNo=%d, CID=%d, Len=%d, Ver=%d\00", align 1
@.str.59 = private unnamed_addr constant [23 x i8] c"TPNCP Command: %s (%d)\00", align 1
@.str.60 = private unnamed_addr constant [47 x i8] c"CmdID=%s(%d), SeqNo=%d, CID=%d, Len=%d, Ver=%d\00", align 1

; Function Attrs: null_pointer_is_valid sspstrong uwtable
define internal i32 @dissect_tpncp(ptr noundef %0, ptr noundef %1, ptr noundef %2, ptr noundef %3) #0 {
  %5 = alloca i32, align 4
  %6 = alloca ptr, align 8
  %7 = alloca ptr, align 8
  %8 = alloca ptr, align 8
  %9 = alloca ptr, align 8
  %10 = alloca ptr, align 8
  %11 = alloca ptr, align 8
  %12 = alloca ptr, align 8
  %13 = alloca ptr, align 8
  %14 = alloca i32, align 4
  %15 = alloca i32, align 4
  %16 = alloca i32, align 4
  %17 = alloca i32, align 4
  %18 = alloca i32, align 4
  %19 = alloca i32, align 4
  %20 = alloca i32, align 4
  %21 = alloca i32, align 4
  %22 = alloca i32, align 4
  %23 = alloca i32, align 4
  %24 = alloca i32, align 4
  store ptr %0, ptr %6, align 8
  store ptr %1, ptr %7, align 8
  store ptr %2, ptr %8, align 8
  store ptr %3, ptr %9, align 8
  call void @llvm.lifetime.start.p0(i64 8, ptr %10) #14
  store ptr null, ptr %10, align 8
  call void @llvm.lifetime.start.p0(i64 8, ptr %11) #14
  store ptr null, ptr %11, align 8
  call void @llvm.lifetime.start.p0(i64 8, ptr %12) #14
  call void @llvm.lifetime.start.p0(i64 8, ptr %13) #14
  call void @llvm.lifetime.start.p0(i64 4, ptr %14) #14
  store i32 0, ptr %14, align 4
  call void @llvm.lifetime.start.p0(i64 4, ptr %15) #14
  store i32 -1, ptr %15, align 4
  call void @llvm.lifetime.start.p0(i64 4, ptr %16) #14
  call void @llvm.lifetime.start.p0(i64 4, ptr %17) #14
  call void @llvm.lifetime.start.p0(i64 4, ptr %18) #14
  call void @llvm.lifetime.start.p0(i64 4, ptr %19) #14
  call void @llvm.lifetime.start.p0(i64 4, ptr %20) #14
  call void @llvm.lifetime.start.p0(i64 4, ptr %21) #14
  call void @llvm.lifetime.start.p0(i64 4, ptr %22) #14
  call void @llvm.lifetime.start.p0(i64 4, ptr %23) #14
  %25 = load i8, ptr @db_initialized, align 1, !range !6, !noundef !7
  %26 = trunc i8 %25 to i1
  br i1 %26, label %28, label %27

27:                                               ; preds = %4
  store i32 0, ptr %5, align 4
  store i32 1, ptr %24, align 4
  br label %216

28:                                               ; preds = %4
  %29 = load ptr, ptr %6, align 8
  %30 = call zeroext i16 @tvb_get_ntohs(ptr noundef %29, i32 noundef 8)
  %31 = zext i16 %30 to i32
  %32 = icmp eq i32 %31, 0
  %33 = select i1 %32, i32 0, i32 -2147483648
  store i32 %33, ptr %22, align 4
  %34 = load ptr, ptr %7, align 8
  %35 = getelementptr inbounds nuw %struct._packet_info, ptr %34, i32 0, i32 1
  %36 = load ptr, ptr %35, align 8
  call void @col_set_str(ptr noundef %36, i32 noundef 35, ptr noundef @.str.9)
  %37 = load ptr, ptr %8, align 8
  %38 = load i32, ptr @proto_tpncp, align 4
  %39 = load ptr, ptr %6, align 8
  %40 = call ptr @proto_tree_add_item(ptr noundef %37, i32 noundef %38, ptr noundef %39, i32 noundef 0, i32 noundef -1, i32 noundef 0)
  store ptr %40, ptr %10, align 8
  %41 = load ptr, ptr %10, align 8
  %42 = load i32, ptr @ett_tpncp, align 4
  %43 = call ptr @proto_item_add_subtree(ptr noundef %41, i32 noundef %42)
  store ptr %43, ptr %11, align 8
  %44 = load ptr, ptr %11, align 8
  %45 = load i32, ptr @hf_tpncp_version, align 4
  %46 = load ptr, ptr %6, align 8
  %47 = load i32, ptr %22, align 4
  %48 = call ptr @proto_tree_add_item_ret_uint(ptr noundef %44, i32 noundef %45, ptr noundef %46, i32 noundef 0, i32 noundef 2, i32 noundef %47, ptr noundef %19)
  %49 = load ptr, ptr %11, align 8
  %50 = load i32, ptr @hf_tpncp_length, align 4
  %51 = load ptr, ptr %6, align 8
  %52 = load i32, ptr %22, align 4
  %53 = call ptr @proto_tree_add_item_ret_uint(ptr noundef %49, i32 noundef %50, ptr noundef %51, i32 noundef 2, i32 noundef 2, i32 noundef %52, ptr noundef %18)
  %54 = load ptr, ptr %11, align 8
  %55 = load i32, ptr @hf_tpncp_seq_number, align 4
  %56 = load ptr, ptr %6, align 8
  %57 = load i32, ptr %22, align 4
  %58 = call ptr @proto_tree_add_item_ret_uint(ptr noundef %54, i32 noundef %55, ptr noundef %56, i32 noundef 4, i32 noundef 2, i32 noundef %57, ptr noundef %17)
  %59 = load ptr, ptr %11, align 8
  %60 = load i32, ptr @hf_tpncp_length_ext, align 4
  %61 = load ptr, ptr %6, align 8
  %62 = load i32, ptr %22, align 4
  %63 = call ptr @proto_tree_add_item_ret_uint(ptr noundef %59, i32 noundef %60, ptr noundef %61, i32 noundef 6, i32 noundef 1, i32 noundef %62, ptr noundef %20)
  %64 = load ptr, ptr %11, align 8
  %65 = load i32, ptr @hf_tpncp_reserved, align 4
  %66 = load ptr, ptr %6, align 8
  %67 = load i32, ptr %22, align 4
  %68 = call ptr @proto_tree_add_item_ret_uint(ptr noundef %64, i32 noundef %65, ptr noundef %66, i32 noundef 7, i32 noundef 1, i32 noundef %67, ptr noundef %21)
  %69 = load i32, ptr %20, align 4
  %70 = mul i32 65535, %69
  %71 = load i32, ptr %18, align 4
  %72 = add i32 %70, %71
  store i32 %72, ptr %23, align 4
  %73 = load ptr, ptr %6, align 8
  %74 = load i32, ptr %22, align 4
  %75 = call i32 @tvb_get_uint32(ptr noundef %73, i32 noundef 8, i32 noundef %74)
  store i32 %75, ptr %16, align 4
  %76 = load i32, ptr %18, align 4
  %77 = icmp ugt i32 %76, 8
  br i1 %77, label %78, label %82

78:                                               ; preds = %28
  %79 = load ptr, ptr %6, align 8
  %80 = load i32, ptr %22, align 4
  %81 = call i32 @tvb_get_int32(ptr noundef %79, i32 noundef 12, i32 noundef %80)
  store i32 %81, ptr %15, align 4
  br label %82

82:                                               ; preds = %78, %28
  %83 = load ptr, ptr %7, align 8
  %84 = getelementptr inbounds nuw %struct._packet_info, ptr %83, i32 0, i32 24
  %85 = load i32, ptr %84, align 4
  %86 = icmp eq i32 %85, 2424
  br i1 %86, label %92, label %87

87:                                               ; preds = %82
  %88 = load ptr, ptr %7, align 8
  %89 = getelementptr inbounds nuw %struct._packet_info, ptr %88, i32 0, i32 24
  %90 = load i32, ptr %89, align 4
  %91 = icmp eq i32 %90, 2442
  br i1 %91, label %92, label %157

92:                                               ; preds = %87, %82
  %93 = load i32, ptr %16, align 4
  %94 = load ptr, ptr @tpncp_events_id_vals, align 8
  %95 = call ptr @try_val_to_str(i32 noundef %93, ptr noundef %94)
  %96 = icmp ne ptr %95, null
  br i1 %96, label %97, label %145

97:                                               ; preds = %92
  %98 = load ptr, ptr %11, align 8
  %99 = load i32, ptr @hf_tpncp_event_id, align 4
  %100 = load ptr, ptr %6, align 8
  %101 = load i32, ptr %16, align 4
  %102 = call ptr @proto_tree_add_uint(ptr noundef %98, i32 noundef %99, ptr noundef %100, i32 noundef 8, i32 noundef 4, i32 noundef %101)
  %103 = load i32, ptr %18, align 4
  %104 = icmp ugt i32 %103, 8
  br i1 %104, label %105, label %111

105:                                              ; preds = %97
  %106 = load ptr, ptr %11, align 8
  %107 = load i32, ptr @hf_tpncp_cid, align 4
  %108 = load ptr, ptr %6, align 8
  %109 = load i32, ptr %15, align 4
  %110 = call ptr @proto_tree_add_int(ptr noundef %106, i32 noundef %107, ptr noundef %108, i32 noundef 12, i32 noundef 4, i32 noundef %109)
  br label %111

111:                                              ; preds = %105, %97
  %112 = load i32, ptr %14, align 4
  %113 = add i32 %112, 16
  store i32 %113, ptr %14, align 4
  %114 = load i32, ptr %16, align 4
  %115 = load i32, ptr @tpncp_events_info_len, align 4
  %116 = icmp ult i32 %114, %115
  br i1 %116, label %117, label %144

117:                                              ; preds = %111
  %118 = load ptr, ptr @tpncp_events_info_db, align 8
  %119 = load i32, ptr %16, align 4
  %120 = zext i32 %119 to i64
  %121 = getelementptr ptr, ptr %118, i64 %120
  %122 = load ptr, ptr %121, align 8
  %123 = icmp ne ptr %122, null
  br i1 %123, label %124, label %144

124:                                              ; preds = %117
  %125 = load i32, ptr %18, align 4
  %126 = icmp ugt i32 %125, 12
  br i1 %126, label %127, label %144

127:                                              ; preds = %124
  %128 = load ptr, ptr %8, align 8
  %129 = load ptr, ptr %6, align 8
  %130 = load i32, ptr %14, align 4
  %131 = load i32, ptr @ett_tpncp_body, align 4
  %132 = load i32, ptr %16, align 4
  %133 = load ptr, ptr @tpncp_events_id_vals, align 8
  %134 = call ptr @val_to_str_const(i32 noundef %132, ptr noundef %133, ptr noundef @.str.57)
  %135 = load i32, ptr %16, align 4
  %136 = call ptr (ptr, ptr, i32, i32, i32, ptr, ptr, ...) @proto_tree_add_subtree_format(ptr noundef %128, ptr noundef %129, i32 noundef %130, i32 noundef -1, i32 noundef %131, ptr noundef null, ptr noundef @.str.56, ptr noundef %134, i32 noundef %135)
  store ptr %136, ptr %12, align 8
  %137 = load i32, ptr %16, align 4
  %138 = load ptr, ptr %7, align 8
  %139 = load ptr, ptr %6, align 8
  %140 = load ptr, ptr %12, align 8
  %141 = load ptr, ptr @tpncp_events_info_db, align 8
  %142 = load i32, ptr %19, align 4
  %143 = load i32, ptr %22, align 4
  call void @dissect_tpncp_data(i32 noundef %137, ptr noundef %138, ptr noundef %139, ptr noundef %140, ptr noundef %14, ptr noundef %141, i32 noundef %142, i32 noundef %143)
  br label %144

144:                                              ; preds = %127, %124, %117, %111
  br label %145

145:                                              ; preds = %144, %92
  %146 = load ptr, ptr %7, align 8
  %147 = getelementptr inbounds nuw %struct._packet_info, ptr %146, i32 0, i32 1
  %148 = load ptr, ptr %147, align 8
  %149 = load i32, ptr %16, align 4
  %150 = load ptr, ptr @tpncp_events_id_vals, align 8
  %151 = call ptr @val_to_str_const(i32 noundef %149, ptr noundef %150, ptr noundef @.str.57)
  %152 = load i32, ptr %16, align 4
  %153 = load i32, ptr %17, align 4
  %154 = load i32, ptr %15, align 4
  %155 = load i32, ptr %23, align 4
  %156 = load i32, ptr %19, align 4
  call void (ptr, i32, ptr, ...) @col_add_fstr(ptr noundef %148, i32 noundef 25, ptr noundef @.str.58, ptr noundef %151, i32 noundef %152, i32 noundef %153, i32 noundef %154, i32 noundef %155, i32 noundef %156)
  br label %213

157:                                              ; preds = %87
  %158 = load i32, ptr %16, align 4
  %159 = load ptr, ptr @tpncp_commands_id_vals, align 8
  %160 = call ptr @try_val_to_str(i32 noundef %158, ptr noundef %159)
  %161 = icmp ne ptr %160, null
  br i1 %161, label %162, label %201

162:                                              ; preds = %157
  %163 = load ptr, ptr %11, align 8
  %164 = load i32, ptr @hf_tpncp_command_id, align 4
  %165 = load ptr, ptr %6, align 8
  %166 = load i32, ptr %16, align 4
  %167 = call ptr @proto_tree_add_uint(ptr noundef %163, i32 noundef %164, ptr noundef %165, i32 noundef 8, i32 noundef 4, i32 noundef %166)
  %168 = load i32, ptr %14, align 4
  %169 = add i32 %168, 12
  store i32 %169, ptr %14, align 4
  %170 = load i32, ptr %16, align 4
  %171 = load i32, ptr @tpncp_commands_info_len, align 4
  %172 = icmp ult i32 %170, %171
  br i1 %172, label %173, label %200

173:                                              ; preds = %162
  %174 = load ptr, ptr @tpncp_commands_info_db, align 8
  %175 = load i32, ptr %16, align 4
  %176 = zext i32 %175 to i64
  %177 = getelementptr ptr, ptr %174, i64 %176
  %178 = load ptr, ptr %177, align 8
  %179 = icmp ne ptr %178, null
  br i1 %179, label %180, label %200

180:                                              ; preds = %173
  %181 = load i32, ptr %18, align 4
  %182 = icmp ugt i32 %181, 8
  br i1 %182, label %183, label %200

183:                                              ; preds = %180
  %184 = load ptr, ptr %8, align 8
  %185 = load ptr, ptr %6, align 8
  %186 = load i32, ptr %14, align 4
  %187 = load i32, ptr @ett_tpncp_body, align 4
  %188 = load i32, ptr %16, align 4
  %189 = load ptr, ptr @tpncp_commands_id_vals, align 8
  %190 = call ptr @val_to_str_const(i32 noundef %188, ptr noundef %189, ptr noundef @.str.57)
  %191 = load i32, ptr %16, align 4
  %192 = call ptr (ptr, ptr, i32, i32, i32, ptr, ptr, ...) @proto_tree_add_subtree_format(ptr noundef %184, ptr noundef %185, i32 noundef %186, i32 noundef -1, i32 noundef %187, ptr noundef null, ptr noundef @.str.59, ptr noundef %190, i32 noundef %191)
  store ptr %192, ptr %13, align 8
  %193 = load i32, ptr %16, align 4
  %194 = load ptr, ptr %7, align 8
  %195 = load ptr, ptr %6, align 8
  %196 = load ptr, ptr %13, align 8
  %197 = load ptr, ptr @tpncp_commands_info_db, align 8
  %198 = load i32, ptr %19, align 4
  %199 = load i32, ptr %22, align 4
  call void @dissect_tpncp_data(i32 noundef %193, ptr noundef %194, ptr noundef %195, ptr noundef %196, ptr noundef %14, ptr noundef %197, i32 noundef %198, i32 noundef %199)
  br label %200

200:                                              ; preds = %183, %180, %173, %162
  br label %201

201:                                              ; preds = %200, %157
  %202 = load ptr, ptr %7, align 8
  %203 = getelementptr inbounds nuw %struct._packet_info, ptr %202, i32 0, i32 1
  %204 = load ptr, ptr %203, align 8
  %205 = load i32, ptr %16, align 4
  %206 = load ptr, ptr @tpncp_commands_id_vals, align 8
  %207 = call ptr @val_to_str_const(i32 noundef %205, ptr noundef %206, ptr noundef @.str.57)
  %208 = load i32, ptr %16, align 4
  %209 = load i32, ptr %17, align 4
  %210 = load i32, ptr %15, align 4
  %211 = load i32, ptr %23, align 4
  %212 = load i32, ptr %19, align 4
  call void (ptr, i32, ptr, ...) @col_add_fstr(ptr noundef %204, i32 noundef 25, ptr noundef @.str.60, ptr noundef %207, i32 noundef %208, i32 noundef %209, i32 noundef %210, i32 noundef %211, i32 noundef %212)
  br label %213

213:                                              ; preds = %201, %145
  %214 = load ptr, ptr %6, align 8
  %215 = call i32 @tvb_reported_length(ptr noundef %214)
  store i32 %215, ptr %5, align 4
  store i32 1, ptr %24, align 4
  br label %216

216:                                              ; preds = %213, %27
  call void @llvm.lifetime.end.p0(i64 4, ptr %23) #14
  call void @llvm.lifetime.end.p0(i64 4, ptr %22) #14
  call void @llvm.lifetime.end.p0(i64 4, ptr %21) #14
  call void @llvm.lifetime.end.p0(i64 4, ptr %20) #14
  call void @llvm.lifetime.end.p0(i64 4, ptr %19) #14
  call void @llvm.lifetime.end.p0(i64 4, ptr %18) #14
  call void @llvm.lifetime.end.p0(i64 4, ptr %17) #14
  call void @llvm.lifetime.end.p0(i64 4, ptr %16) #14
  call void @llvm.lifetime.end.p0(i64 4, ptr %15) #14
  call void @llvm.lifetime.end.p0(i64 4, ptr %14) #14
  call void @llvm.lifetime.end.p0(i64 8, ptr %13) #14
  call void @llvm.lifetime.end.p0(i64 8, ptr %12) #14
  call void @llvm.lifetime.end.p0(i64 8, ptr %11) #14
  call void @llvm.lifetime.end.p0(i64 8, ptr %10) #14
  %217 = load i32, ptr %5, align 4
  ret i32 %217
}