; Function Attrs: null_pointer_is_valid sspstrong uwtable
define internal i32 @dissect_tpncp(ptr noundef %0, ptr noundef %1, ptr noundef %2, ptr readnone captures(none) %3) #0 {
  %5 = alloca i32, align 4
  %6 = alloca i32, align 4
  %7 = alloca i32, align 4
  %8 = alloca i32, align 4
  %9 = alloca i32, align 4
  %10 = alloca i32, align 4
  call void @llvm.lifetime.start.p0(i64 4, ptr nonnull %5) #17
  call void @llvm.lifetime.start.p0(i64 4, ptr nonnull %6) #17
  call void @llvm.lifetime.start.p0(i64 4, ptr nonnull %7) #17
  call void @llvm.lifetime.start.p0(i64 4, ptr nonnull %8) #17
  call void @llvm.lifetime.start.p0(i64 4, ptr nonnull %9) #17
  call void @llvm.lifetime.start.p0(i64 4, ptr nonnull %10) #17
  %.b76 = load i1, ptr @db_initialized, align 1
  br i1 %.b76, label %11, label %100

11:                                               ; preds = %4
  %12 = tail call zeroext i16 @tvb_get_ntohs(ptr noundef %0, i32 noundef 8)
  %13 = icmp eq i16 %12, 0
  %14 = select i1 %13, i32 0, i32 -2147483648
  %15 = getelementptr inbounds nuw i8, ptr %1, i64 8
  %16 = load ptr, ptr %15, align 8
  tail call void @col_set_str(ptr noundef %16, i32 noundef 35, ptr noundef nonnull @.str.9)
  %17 = load i32, ptr @proto_tpncp, align 4
  %18 = tail call ptr @proto_tree_add_item(ptr noundef %2, i32 noundef %17, ptr noundef %0, i32 noundef 0, i32 noundef -1, i32 noundef 0)
  %19 = load i32, ptr @ett_tpncp, align 4
  %20 = tail call ptr @proto_item_add_subtree(ptr noundef %18, i32 noundef %19)
  %21 = load i32, ptr @hf_tpncp_version, align 4
  %22 = call ptr @proto_tree_add_item_ret_uint(ptr noundef %20, i32 noundef %21, ptr noundef %0, i32 noundef 0, i32 noundef 2, i32 noundef %14, ptr noundef nonnull %8)
  %23 = load i32, ptr @hf_tpncp_length, align 4
  %24 = call ptr @proto_tree_add_item_ret_uint(ptr noundef %20, i32 noundef %23, ptr noundef %0, i32 noundef 2, i32 noundef 2, i32 noundef %14, ptr noundef nonnull %7)
  %25 = load i32, ptr @hf_tpncp_seq_number, align 4
  %26 = call ptr @proto_tree_add_item_ret_uint(ptr noundef %20, i32 noundef %25, ptr noundef %0, i32 noundef 4, i32 noundef 2, i32 noundef %14, ptr noundef nonnull %6)
  %27 = load i32, ptr @hf_tpncp_length_ext, align 4
  %28 = call ptr @proto_tree_add_item_ret_uint(ptr noundef %20, i32 noundef %27, ptr noundef %0, i32 noundef 6, i32 noundef 1, i32 noundef %14, ptr noundef nonnull %9)
  %29 = load i32, ptr @hf_tpncp_reserved, align 4
  %30 = call ptr @proto_tree_add_item_ret_uint(ptr noundef %20, i32 noundef %29, ptr noundef %0, i32 noundef 7, i32 noundef 1, i32 noundef %14, ptr noundef nonnull %10)
  %31 = load i32, ptr %9, align 4
  %32 = mul i32 %31, 65535
  %33 = load i32, ptr %7, align 4
  %34 = add i32 %32, %33
  %35 = call i32 @tvb_get_uint32(ptr noundef %0, i32 noundef 8, i32 noundef %14)
  %36 = load i32, ptr %7, align 4
  %37 = icmp ugt i32 %36, 8
  br i1 %37, label %38, label %40

38:                                               ; preds = %11
  %39 = call i32 @tvb_get_int32(ptr noundef %0, i32 noundef 12, i32 noundef %14)
  br label %40

40:                                               ; preds = %38, %11
  %.073 = phi i32 [ %39, %38 ], [ -1, %11 ]
  %41 = getelementptr inbounds nuw i8, ptr %1, i64 284
  %42 = load i32, ptr %41, align 4
  switch i32 %42, label %70 [
    i32 2424, label %43
    i32 2442, label %43
  ]

43:                                               ; preds = %40, %40
  %44 = load ptr, ptr @tpncp_events_id_vals, align 8
  %45 = call ptr @try_val_to_str(i32 noundef %35, ptr noundef %44)
  %.not77 = icmp eq ptr %45, null
  br i1 %.not77, label %93, label %46

46:                                               ; preds = %43
  %47 = load i32, ptr @hf_tpncp_event_id, align 4
  %48 = call ptr @proto_tree_add_uint(ptr noundef %20, i32 noundef %47, ptr noundef %0, i32 noundef 8, i32 noundef 4, i32 noundef %35)
  %49 = load i32, ptr %7, align 4
  %50 = icmp ugt i32 %49, 8
  br i1 %50, label %51, label %54

51:                                               ; preds = %46
  %52 = load i32, ptr @hf_tpncp_cid, align 4
  %53 = call ptr @proto_tree_add_int(ptr noundef %20, i32 noundef %52, ptr noundef %0, i32 noundef 12, i32 noundef 4, i32 noundef %.073)
  br label %54

54:                                               ; preds = %51, %46
  store i32 16, ptr %5, align 4
  %55 = load i32, ptr @tpncp_events_info_len, align 4
  %56 = icmp ult i32 %35, %55
  br i1 %56, label %57, label %93

57:                                               ; preds = %54
  %58 = load ptr, ptr @tpncp_events_info_db, align 8
  %59 = zext i32 %35 to i64
  %60 = getelementptr ptr, ptr %58, i64 %59
  %61 = load ptr, ptr %60, align 8
  %62 = icmp ne ptr %61, null
  %63 = load i32, ptr %7, align 4
  %64 = icmp ugt i32 %63, 12
  %or.cond = select i1 %62, i1 %64, i1 false
  br i1 %or.cond, label %65, label %93

65:                                               ; preds = %57
  %66 = load i32, ptr @ett_tpncp_body, align 4
  %67 = load ptr, ptr @tpncp_events_id_vals, align 8
  %68 = call ptr @val_to_str_const(i32 noundef %35, ptr noundef %67, ptr noundef nonnull @.str.57)
  %69 = call ptr (ptr, ptr, i32, i32, i32, ptr, ptr, ...) @proto_tree_add_subtree_format(ptr noundef %2, ptr noundef %0, i32 noundef 16, i32 noundef -1, i32 noundef %66, ptr noundef null, ptr noundef nonnull @.str.56, ptr noundef %68, i32 noundef %35)
  br label %.sink.split

70:                                               ; preds = %40
  %71 = load ptr, ptr @tpncp_commands_id_vals, align 8
  %72 = call ptr @try_val_to_str(i32 noundef %35, ptr noundef %71)
  %.not = icmp eq ptr %72, null
  br i1 %.not, label %93, label %73

73:                                               ; preds = %70
  %74 = load i32, ptr @hf_tpncp_command_id, align 4
  %75 = call ptr @proto_tree_add_uint(ptr noundef %20, i32 noundef %74, ptr noundef %0, i32 noundef 8, i32 noundef 4, i32 noundef %35)
  store i32 12, ptr %5, align 4
  %76 = load i32, ptr @tpncp_commands_info_len, align 4
  %77 = icmp ult i32 %35, %76
  br i1 %77, label %78, label %93

78:                                               ; preds = %73
  %79 = load ptr, ptr @tpncp_commands_info_db, align 8
  %80 = zext i32 %35 to i64
  %81 = getelementptr ptr, ptr %79, i64 %80
  %82 = load ptr, ptr %81, align 8
  %83 = icmp ne ptr %82, null
  %84 = load i32, ptr %7, align 4
  %85 = icmp ugt i32 %84, 8
  %or.cond3 = select i1 %83, i1 %85, i1 false
  br i1 %or.cond3, label %86, label %93

86:                                               ; preds = %78
  %87 = load i32, ptr @ett_tpncp_body, align 4
  %88 = load ptr, ptr @tpncp_commands_id_vals, align 8
  %89 = call ptr @val_to_str_const(i32 noundef %35, ptr noundef %88, ptr noundef nonnull @.str.57)
  %90 = call ptr (ptr, ptr, i32, i32, i32, ptr, ptr, ...) @proto_tree_add_subtree_format(ptr noundef %2, ptr noundef %0, i32 noundef 12, i32 noundef -1, i32 noundef %87, ptr noundef null, ptr noundef nonnull @.str.59, ptr noundef %89, i32 noundef %35)
  br label %.sink.split

.sink.split:                                      ; preds = %65, %86
  %tpncp_commands_info_db.sink = phi ptr [ @tpncp_commands_info_db, %86 ], [ @tpncp_events_info_db, %65 ]
  %.sink = phi ptr [ %90, %86 ], [ %69, %65 ]
  %tpncp_commands_id_vals.sink.ph = phi ptr [ @tpncp_commands_id_vals, %86 ], [ @tpncp_events_id_vals, %65 ]
  %.str.60.sink.ph = phi ptr [ @.str.60, %86 ], [ @.str.58, %65 ]
  %91 = load ptr, ptr %tpncp_commands_info_db.sink, align 8
  %92 = load i32, ptr %8, align 4
  call fastcc void @dissect_tpncp_data(i32 noundef %35, ptr noundef %1, ptr noundef %0, ptr noundef %.sink, ptr noundef nonnull %5, ptr noundef %91, i32 noundef %92, i32 noundef %14)
  br label %93

93:                                               ; preds = %.sink.split, %70, %78, %73, %43, %57, %54
  %tpncp_commands_id_vals.sink = phi ptr [ @tpncp_events_id_vals, %54 ], [ @tpncp_events_id_vals, %57 ], [ @tpncp_events_id_vals, %43 ], [ @tpncp_commands_id_vals, %73 ], [ @tpncp_commands_id_vals, %78 ], [ @tpncp_commands_id_vals, %70 ], [ %tpncp_commands_id_vals.sink.ph, %.sink.split ]
  %.str.60.sink = phi ptr [ @.str.58, %54 ], [ @.str.58, %57 ], [ @.str.58, %43 ], [ @.str.60, %73 ], [ @.str.60, %78 ], [ @.str.60, %70 ], [ %.str.60.sink.ph, %.sink.split ]
  %94 = load ptr, ptr %15, align 8
  %95 = load ptr, ptr %tpncp_commands_id_vals.sink, align 8
  %96 = call ptr @val_to_str_const(i32 noundef %35, ptr noundef %95, ptr noundef nonnull @.str.57)
  %97 = load i32, ptr %6, align 4
  %98 = load i32, ptr %8, align 4
  call void (ptr, i32, ptr, ...) @col_add_fstr(ptr noundef %94, i32 noundef 25, ptr noundef nonnull %.str.60.sink, ptr noundef %96, i32 noundef %35, i32 noundef %97, i32 noundef %.073, i32 noundef %34, i32 noundef %98)
  %99 = call i32 @tvb_reported_length(ptr noundef %0)
  br label %100

100:                                              ; preds = %4, %93
  %.0 = phi i32 [ %99, %93 ], [ 0, %4 ]
  call void @llvm.lifetime.end.p0(i64 4, ptr nonnull %10) #17
  call void @llvm.lifetime.end.p0(i64 4, ptr nonnull %9) #17
  call void @llvm.lifetime.end.p0(i64 4, ptr nonnull %8) #17
  call void @llvm.lifetime.end.p0(i64 4, ptr nonnull %7) #17
  call void @llvm.lifetime.end.p0(i64 4, ptr nonnull %6) #17
  call void @llvm.lifetime.end.p0(i64 4, ptr nonnull %5) #17
  ret i32 %.0
}